Certificate:
    Data:
        Version: 3 (0x2)
        Serial Number: 2 (0x2)
    Signature Algorithm: sha1WithRSAEncryption
        Issuer: C=CN, ST=Anhui, L=Hefei, O=LUG@USTC, OU=changeme, CN=changeme/name=changeme/emailAddress=lug@ustc.edu.cn
        Validity
            Not Before: Jan 15 12:39:33 2014 GMT
            Not After : Jan 13 12:39:33 2024 GMT
        Subject: C=CN, ST=Anhui, L=Hefei, O=LUG@USTC, OU=changeme, CN=blog/name=changeme/emailAddress=lug@ustc.edu.cn
        Subject Public Key Info:
            Public Key Algorithm: rsaEncryption
                Public-Key: (1024 bit)
                Modulus:
                    00:d2:dd:b4:32:06:55:88:9b:54:3d:ac:b1:d0:b4:
                    2d:13:1b:57:2e:89:d4:5b:14:8a:05:ee:ad:42:04:
                    a3:1c:2d:f1:a7:bf:fb:dc:78:4e:d7:7f:fc:d0:6d:
                    4e:a9:89:cb:c2:d5:b3:5a:41:9b:e4:cf:31:cb:3e:
                    34:e5:34:b4:9f:c9:96:1c:68:34:46:ff:a9:aa:4a:
                    33:81:b9:63:11:9d:6b:0c:41:6a:1b:6a:4f:b2:5c:
                    8f:6c:12:d9:f2:8a:60:e8:08:42:9a:e8:e3:0e:c2:
                    bb:7f:bb:cb:a6:9a:82:c7:fe:be:58:e2:f8:21:86:
                    9b:3f:5e:6c:59:f8:bb:eb:21
                Exponent: 65537 (0x10001)
        X509v3 extensions:
            X509v3 Basic Constraints: 
                CA:FALSE
            Netscape Comment: 
                Easy-RSA Generated Certificate
            X509v3 Subject Key Identifier: 
                E8:AB:5F:E3:CD:F2:F1:65:66:C9:8B:9A:B8:7F:A9:B1:72:4B:B3:E0
            X509v3 Authority Key Identifier: 
                keyid:8C:A6:32:79:2A:32:69:3A:DD:BB:11:24:92:F5:23:9C:B9:E7:48:32
                DirName:/C=CN/ST=Anhui/L=Hefei/O=LUG@USTC/OU=changeme/CN=changeme/name=changeme/emailAddress=lug@ustc.edu.cn
                serial:8E:23:95:23:58:DD:1A:26

            X509v3 Extended Key Usage: 
                TLS Web Client Authentication
            X509v3 Key Usage: 
                Digital Signature
    Signature Algorithm: sha1WithRSAEncryption
         6e:97:2a:45:8b:a7:a0:d7:fe:ff:fc:ef:1f:4c:dd:7a:8e:49:
         81:a3:d8:2d:b1:ab:66:f6:5f:e1:81:89:a1:49:ec:1a:c2:03:
         9f:a0:c8:63:13:df:71:e4:54:df:ea:10:29:a2:41:c7:4b:c5:
         d5:b5:22:49:5b:90:37:35:5f:5b:c2:ef:ec:fd:37:2a:3f:18:
         21:4b:be:86:e3:fe:14:47:97:ce:35:b4:c7:79:00:00:0b:d1:
         7d:1e:a2:a9:1d:a5:ee:0a:8a:74:fe:0f:1d:ca:e0:16:35:8e:
         4d:c3:f3:5e:2a:bd:f8:dc:aa:d1:f3:d4:ba:36:b2:dd:c9:cb:
         30:56
-----BEGIN CERTIFICATE-----
MIID+DCCA2GgAwIBAgIBAjANBgkqhkiG9w0BAQUFADCBmTELMAkGA1UEBhMCQ04x
DjAMBgNVBAgTBUFuaHVpMQ4wDAYDVQQHEwVIZWZlaTERMA8GA1UEChQITFVHQFVT
VEMxETAPBgNVBAsTCGNoYW5nZW1lMREwDwYDVQQDEwhjaGFuZ2VtZTERMA8GA1UE
KRMIY2hhbmdlbWUxHjAcBgkqhkiG9w0BCQEWD2x1Z0B1c3RjLmVkdS5jbjAeFw0x
NDAxMTUxMjM5MzNaFw0yNDAxMTMxMjM5MzNaMIGVMQswCQYDVQQGEwJDTjEOMAwG
A1UECBMFQW5odWkxDjAMBgNVBAcTBUhlZmVpMREwDwYDVQQKFAhMVUdAVVNUQzER
MA8GA1UECxMIY2hhbmdlbWUxDTALBgNVBAMTBGJsb2cxETAPBgNVBCkTCGNoYW5n
ZW1lMR4wHAYJKoZIhvcNAQkBFg9sdWdAdXN0Yy5lZHUuY24wgZ8wDQYJKoZIhvcN
AQEBBQADgY0AMIGJAoGBANLdtDIGVYibVD2ssdC0LRMbVy6J1FsUigXurUIEoxwt
8ae/+9x4Ttd//NBtTqmJy8LVs1pBm+TPMcs+NOU0tJ/JlhxoNEb/qapKM4G5YxGd
awxBahtqT7Jcj2wS2fKKYOgIQpro4w7Cu3+7y6aagsf+vlji+CGGmz9ebFn4u+sh
AgMBAAGjggFQMIIBTDAJBgNVHRMEAjAAMC0GCWCGSAGG+EIBDQQgFh5FYXN5LVJT
QSBHZW5lcmF0ZWQgQ2VydGlmaWNhdGUwHQYDVR0OBBYEFOirX+PN8vFlZsmLmrh/
qbFyS7PgMIHOBgNVHSMEgcYwgcOAFIymMnkqMmk63bsRJJL1I5y550gyoYGfpIGc
MIGZMQswCQYDVQQGEwJDTjEOMAwGA1UECBMFQW5odWkxDjAMBgNVBAcTBUhlZmVp
MREwDwYDVQQKFAhMVUdAVVNUQzERMA8GA1UECxMIY2hhbmdlbWUxETAPBgNVBAMT
CGNoYW5nZW1lMREwDwYDVQQpEwhjaGFuZ2VtZTEeMBwGCSqGSIb3DQEJARYPbHVn
QHVzdGMuZWR1LmNuggkAjiOVI1jdGiYwEwYDVR0lBAwwCgYIKwYBBQUHAwIwCwYD
VR0PBAQDAgeAMA0GCSqGSIb3DQEBBQUAA4GBAG6XKkWLp6DX/v/87x9M3XqOSYGj
2C2xq2b2X+GBiaFJ7BrCA5+gyGMT33HkVN/qECmiQcdLxdW1IklbkDc1X1vC7+z9
Nyo/GCFLvobj/hRHl841tMd5AAAL0X0eoqkdpe4KinT+Dx3K4BY1jk3D814qvfjc
qtHz1Lo2st3JyzBW
-----END CERTIFICATE-----
