Certificate:
    Data:
        Version: 3 (0x2)
        Serial Number: 2 (0x2)
    Signature Algorithm: sha1WithRSAEncryption
        Issuer: C=CN, ST=Anhui, L=Hefei, O=LUG@USTC, OU=changeme, CN=changeme/name=changeme/emailAddress=bojieli@gmail.com
        Validity
            Not Before: Oct 31 16:50:38 2013 GMT
            Not After : Oct 29 16:50:38 2023 GMT
        Subject: C=CN, ST=Anhui, L=Hefei, O=LUG@USTC, OU=changeme, CN=blog/name=blog/emailAddress=support@blog.ustc.edu.cn
        Subject Public Key Info:
            Public Key Algorithm: rsaEncryption
                Public-Key: (1024 bit)
                Modulus:
                    00:c4:4b:db:55:79:9b:9f:e9:fd:a5:32:f4:0c:45:
                    83:b2:2d:7b:da:7d:af:81:da:81:51:64:7d:f8:54:
                    d4:14:37:1e:27:3d:7f:76:15:50:8e:32:a4:66:6c:
                    36:05:e0:57:c9:eb:9e:5a:99:0d:e2:59:ee:de:ab:
                    b4:e0:f6:6e:33:42:fe:d6:a0:3b:15:ac:f9:24:9e:
                    93:bb:1c:c1:f1:9c:d9:d8:33:3a:ae:3d:40:86:d0:
                    61:e7:4d:ee:2d:98:19:fa:dc:84:90:cf:3d:a8:30:
                    77:23:cf:38:f9:8b:74:2c:cc:6e:50:ce:2d:a7:78:
                    59:97:8d:31:14:0f:d5:a6:ad
                Exponent: 65537 (0x10001)
        X509v3 extensions:
            X509v3 Basic Constraints: 
                CA:FALSE
            Netscape Comment: 
                Easy-RSA Generated Certificate
            X509v3 Subject Key Identifier: 
                6D:7F:48:D1:17:B5:3B:77:FB:3F:F6:93:E9:F8:0E:0F:A3:F7:63:19
            X509v3 Authority Key Identifier: 
                keyid:3A:C4:0E:24:33:22:D1:81:58:15:F1:06:A4:D1:C8:45:27:D5:8D:6D
                DirName:/C=CN/ST=Anhui/L=Hefei/O=LUG@USTC/OU=changeme/CN=changeme/name=changeme/emailAddress=bojieli@gmail.com
                serial:AB:C6:C8:12:73:B9:B0:57

            X509v3 Extended Key Usage: 
                TLS Web Client Authentication
            X509v3 Key Usage: 
                Digital Signature
    Signature Algorithm: sha1WithRSAEncryption
         99:a2:95:bf:fb:8f:8f:58:c4:8b:12:e7:f2:0c:a8:f6:34:a2:
         32:32:70:6a:c2:c8:d4:10:16:f4:22:82:ed:a5:90:04:5f:81:
         a8:3a:92:a1:6d:09:d8:83:0f:2a:fa:c9:30:15:4d:c8:c6:78:
         d5:d3:65:bb:77:d9:d3:9a:cb:73:6d:c7:f6:6a:c9:35:03:04:
         b4:47:21:cb:01:88:60:35:c4:c9:e5:00:72:a3:bd:7b:4c:a9:
         0d:79:99:c0:00:3c:18:42:cc:7e:ac:c0:32:fe:24:0b:17:3d:
         62:e0:8f:32:ea:ba:1e:7c:5c:c5:e5:0c:e4:ce:36:64:78:48:
         34:72
-----BEGIN CERTIFICATE-----
MIIEATCCA2qgAwIBAgIBAjANBgkqhkiG9w0BAQUFADCBmzELMAkGA1UEBhMCQ04x
DjAMBgNVBAgTBUFuaHVpMQ4wDAYDVQQHEwVIZWZlaTERMA8GA1UEChQITFVHQFVT
VEMxETAPBgNVBAsTCGNoYW5nZW1lMREwDwYDVQQDEwhjaGFuZ2VtZTERMA8GA1UE
KRMIY2hhbmdlbWUxIDAeBgkqhkiG9w0BCQEWEWJvamllbGlAZ21haWwuY29tMB4X
DTEzMTAzMTE2NTAzOFoXDTIzMTAyOTE2NTAzOFowgZoxCzAJBgNVBAYTAkNOMQ4w
DAYDVQQIEwVBbmh1aTEOMAwGA1UEBxMFSGVmZWkxETAPBgNVBAoUCExVR0BVU1RD
MREwDwYDVQQLEwhjaGFuZ2VtZTENMAsGA1UEAxMEYmxvZzENMAsGA1UEKRMEYmxv
ZzEnMCUGCSqGSIb3DQEJARYYc3VwcG9ydEBibG9nLnVzdGMuZWR1LmNuMIGfMA0G
CSqGSIb3DQEBAQUAA4GNADCBiQKBgQDES9tVeZuf6f2lMvQMRYOyLXvafa+B2oFR
ZH34VNQUNx4nPX92FVCOMqRmbDYF4FfJ655amQ3iWe7eq7Tg9m4zQv7WoDsVrPkk
npO7HMHxnNnYMzquPUCG0GHnTe4tmBn63ISQzz2oMHcjzzj5i3QszG5Qzi2neFmX
jTEUD9WmrQIDAQABo4IBUjCCAU4wCQYDVR0TBAIwADAtBglghkgBhvhCAQ0EIBYe
RWFzeS1SU0EgR2VuZXJhdGVkIENlcnRpZmljYXRlMB0GA1UdDgQWBBRtf0jRF7U7
d/s/9pPp+A4Po/djGTCB0AYDVR0jBIHIMIHFgBQ6xA4kMyLRgVgV8Qak0chFJ9WN
baGBoaSBnjCBmzELMAkGA1UEBhMCQ04xDjAMBgNVBAgTBUFuaHVpMQ4wDAYDVQQH
EwVIZWZlaTERMA8GA1UEChQITFVHQFVTVEMxETAPBgNVBAsTCGNoYW5nZW1lMREw
DwYDVQQDEwhjaGFuZ2VtZTERMA8GA1UEKRMIY2hhbmdlbWUxIDAeBgkqhkiG9w0B
CQEWEWJvamllbGlAZ21haWwuY29tggkAq8bIEnO5sFcwEwYDVR0lBAwwCgYIKwYB
BQUHAwIwCwYDVR0PBAQDAgeAMA0GCSqGSIb3DQEBBQUAA4GBAJmilb/7j49YxIsS
5/IMqPY0ojIycGrCyNQQFvQigu2lkARfgag6kqFtCdiDDyr6yTAVTcjGeNXTZbt3
2dOay3Ntx/ZqyTUDBLRHIcsBiGA1xMnlAHKjvXtMqQ15mcAAPBhCzH6swDL+JAsX
PWLgjzLquh58XMXlDOTONmR4SDRy
-----END CERTIFICATE-----
